target datalayout = "e-m:e-p270:32:32-p271:32:32-p272:64:64-i64:64-i128:128-f80:128-n8:16:32:64-S128"
target triple = "x86_64-pc-linux-gnu"

%struct.ItemPointerData = type { %struct.BlockIdData, i16 }
%struct.BlockIdData = type { i16, i16 }
%struct.IndexScanDescData = type { ptr, ptr, ptr, i32, i32, ptr, ptr, i8, i8, i8, i8, i8, ptr, ptr, ptr, ptr, ptr, %struct.ItemPointerData, i8, ptr, i8, ptr, ptr, i8, ptr }
%struct.BTScanOpaqueData = type { i8, i32, ptr, i32, i8, i8, i8, ptr, ptr, ptr, ptr, i32, ptr, ptr, i32, %struct.BTScanPosData, %struct.BTScanPosData }
%struct.BTScanPosData = type { i32, i32, i32, i32, i64, i32, i32, i8, i8, i32, i32, i32, [1358 x %struct.BTScanPosItem] }
%struct.BTScanPosItem = type { %struct.ItemPointerData, i16, i16 }

; Function Attrs: inlinehint nounwind uwtable
define internal void @_bt_returnitem(ptr noundef %0, ptr noundef %1) #3 {
  %3 = alloca ptr, align 8
  %4 = alloca ptr, align 8
  %5 = alloca ptr, align 8
  store ptr %0, ptr %3, align 8
  store ptr %1, ptr %4, align 8
  call void @llvm.lifetime.start.p0(i64 8, ptr %5) #7
  %6 = load ptr, ptr %4, align 8
  %7 = getelementptr inbounds nuw %struct.BTScanOpaqueData, ptr %6, i32 0, i32 15
  %8 = getelementptr inbounds nuw %struct.BTScanPosData, ptr %7, i32 0, i32 12
  %9 = load ptr, ptr %4, align 8
  %10 = getelementptr inbounds nuw %struct.BTScanOpaqueData, ptr %9, i32 0, i32 15
  %11 = getelementptr inbounds nuw %struct.BTScanPosData, ptr %10, i32 0, i32 11
  %12 = load i32, ptr %11, align 4
  %13 = sext i32 %12 to i64
  %14 = getelementptr inbounds [1358 x %struct.BTScanPosItem], ptr %8, i64 0, i64 %13
  store ptr %14, ptr %5, align 8
  %15 = load ptr, ptr %3, align 8
  %16 = getelementptr inbounds nuw %struct.IndexScanDescData, ptr %15, i32 0, i32 17
  %17 = load ptr, ptr %5, align 8
  %18 = getelementptr inbounds nuw %struct.BTScanPosItem, ptr %17, i32 0, i32 0
  call void @llvm.memcpy.p0.p0.i64(ptr align 8 %16, ptr align 2 %18, i64 6, i1 false)
  %19 = load ptr, ptr %4, align 8
  %20 = getelementptr inbounds nuw %struct.BTScanOpaqueData, ptr %19, i32 0, i32 12
  %21 = load ptr, ptr %20, align 8
  %22 = icmp ne ptr %21, null
  br i1 %22, label %23, label %35

23:                                               ; preds = %2
  %24 = load ptr, ptr %4, align 8
  %25 = getelementptr inbounds nuw %struct.BTScanOpaqueData, ptr %24, i32 0, i32 12
  %26 = load ptr, ptr %25, align 8
  %27 = load ptr, ptr %5, align 8
  %28 = getelementptr inbounds nuw %struct.BTScanPosItem, ptr %27, i32 0, i32 2
  %29 = load i16, ptr %28, align 2
  %30 = zext i16 %29 to i32
  %31 = sext i32 %30 to i64
  %32 = getelementptr inbounds i8, ptr %26, i64 %31
  %33 = load ptr, ptr %3, align 8
  %34 = getelementptr inbounds nuw %struct.IndexScanDescData, ptr %33, i32 0, i32 13
  store ptr %32, ptr %34, align 8
  br label %35

35:                                               ; preds = %23, %2
  call void @llvm.lifetime.end.p0(i64 8, ptr %5) #7
  ret void
}

; Function Attrs: nounwind uwtable
define dso_local zeroext i1 @_bt_next(ptr noundef %0, i32 noundef %1) #0 {
  %3 = alloca i1, align 1
  %4 = alloca ptr, align 8
  %5 = alloca i32, align 4
  %6 = alloca ptr, align 8
  %7 = alloca i32, align 4
  store ptr %0, ptr %4, align 8
  store i32 %1, ptr %5, align 4
  call void @llvm.lifetime.start.p0(i64 8, ptr %6) #7
  %8 = load ptr, ptr %4, align 8
  %9 = getelementptr inbounds nuw %struct.IndexScanDescData, ptr %8, i32 0, i32 12
  %10 = load ptr, ptr %9, align 8
  store ptr %10, ptr %6, align 8
  %11 = load i32, ptr %5, align 4
  %12 = icmp eq i32 %11, 1
  br i1 %12, label %13, label %31

13:                                               ; preds = %2
  %14 = load ptr, ptr %6, align 8
  %15 = getelementptr inbounds nuw %struct.BTScanOpaqueData, ptr %14, i32 0, i32 15
  %16 = getelementptr inbounds nuw %struct.BTScanPosData, ptr %15, i32 0, i32 11
  %17 = load i32, ptr %16, align 4
  %18 = add i32 %17, 1
  store i32 %18, ptr %16, align 4
  %19 = load ptr, ptr %6, align 8
  %20 = getelementptr inbounds nuw %struct.BTScanOpaqueData, ptr %19, i32 0, i32 15
  %21 = getelementptr inbounds nuw %struct.BTScanPosData, ptr %20, i32 0, i32 10
  %22 = load i32, ptr %21, align 8
  %23 = icmp sgt i32 %18, %22
  br i1 %23, label %24, label %30

24:                                               ; preds = %13
  %25 = load ptr, ptr %4, align 8
  %26 = load i32, ptr %5, align 4
  %27 = call zeroext i1 @_bt_steppage(ptr noundef %25, i32 noundef %26)
  br i1 %27, label %29, label %28

28:                                               ; preds = %24
  store i1 false, ptr %3, align 1
  store i32 1, ptr %7, align 4
  br label %52

29:                                               ; preds = %24
  br label %30

30:                                               ; preds = %29, %13
  br label %49

31:                                               ; preds = %2
  %32 = load ptr, ptr %6, align 8
  %33 = getelementptr inbounds nuw %struct.BTScanOpaqueData, ptr %32, i32 0, i32 15
  %34 = getelementptr inbounds nuw %struct.BTScanPosData, ptr %33, i32 0, i32 11
  %35 = load i32, ptr %34, align 4
  %36 = add i32 %35, -1
  store i32 %36, ptr %34, align 4
  %37 = load ptr, ptr %6, align 8
  %38 = getelementptr inbounds nuw %struct.BTScanOpaqueData, ptr %37, i32 0, i32 15
  %39 = getelementptr inbounds nuw %struct.BTScanPosData, ptr %38, i32 0, i32 9
  %40 = load i32, ptr %39, align 4
  %41 = icmp slt i32 %36, %40
  br i1 %41, label %42, label %48

42:                                               ; preds = %31
  %43 = load ptr, ptr %4, align 8
  %44 = load i32, ptr %5, align 4
  %45 = call zeroext i1 @_bt_steppage(ptr noundef %43, i32 noundef %44)
  br i1 %45, label %47, label %46

46:                                               ; preds = %42
  store i1 false, ptr %3, align 1
  store i32 1, ptr %7, align 4
  br label %52

47:                                               ; preds = %42
  br label %48

48:                                               ; preds = %47, %31
  br label %49

49:                                               ; preds = %48, %30
  %50 = load ptr, ptr %4, align 8
  %51 = load ptr, ptr %6, align 8
  call void @_bt_returnitem(ptr noundef %50, ptr noundef %51)
  store i1 true, ptr %3, align 1
  store i32 1, ptr %7, align 4
  br label %52

52:                                               ; preds = %49, %46, %28
  call void @llvm.lifetime.end.p0(i64 8, ptr %6) #7
  %53 = load i1, ptr %3, align 1
  ret i1 %53
}