; Function Attrs: nounwind uwtable
define dso_local noundef zeroext i1 @_bt_next(ptr noundef %0, i32 noundef %1) local_unnamed_addr #0 {
  %3 = getelementptr inbounds nuw i8, ptr %0, i64 56
  %4 = load ptr, ptr %3, align 8
  %5 = icmp eq i32 %1, 1
  %6 = getelementptr inbounds nuw i8, ptr %4, i64 132
  %7 = load i32, ptr %6, align 4
  br i1 %5, label %8, label %15

8:                                                ; preds = %2
  %9 = add i32 %7, 1
  store i32 %9, ptr %6, align 4
  %10 = getelementptr inbounds nuw i8, ptr %4, i64 128
  %11 = load i32, ptr %10, align 8
  %12 = icmp sgt i32 %9, %11
  br i1 %12, label %13, label %22

13:                                               ; preds = %8
  %14 = tail call fastcc zeroext i1 @_bt_steppage(ptr noundef nonnull %0, i32 noundef 1)
  br i1 %14, label %22, label %_bt_returnitem.exit

15:                                               ; preds = %2
  %16 = add i32 %7, -1
  store i32 %16, ptr %6, align 4
  %17 = getelementptr inbounds nuw i8, ptr %4, i64 124
  %18 = load i32, ptr %17, align 4
  %19 = icmp slt i32 %16, %18
  br i1 %19, label %20, label %22

20:                                               ; preds = %15
  %21 = tail call fastcc zeroext i1 @_bt_steppage(ptr noundef nonnull %0, i32 noundef %1)
  br i1 %21, label %22, label %_bt_returnitem.exit

22:                                               ; preds = %15, %20, %8, %13
  %23 = getelementptr inbounds nuw i8, ptr %4, i64 136
  %24 = getelementptr inbounds nuw i8, ptr %4, i64 132
  %25 = load i32, ptr %24, align 4
  %26 = sext i32 %25 to i64
  %27 = getelementptr inbounds [1358 x %struct.BTScanPosItem], ptr %23, i64 0, i64 %26
  %28 = getelementptr inbounds nuw i8, ptr %0, i64 96
  tail call void @llvm.memcpy.p0.p0.i64(ptr noundef nonnull align 8 dereferenceable(6) %28, ptr noundef nonnull readonly align 2 dereferenceable(6) %27, i64 6, i1 false)
  %29 = getelementptr inbounds nuw i8, ptr %4, i64 64
  %30 = load ptr, ptr %29, align 8
  %.not.i = icmp eq ptr %30, null
  br i1 %.not.i, label %_bt_returnitem.exit, label %31

31:                                               ; preds = %22
  %32 = getelementptr inbounds nuw i8, ptr %27, i64 8
  %33 = load i16, ptr %32, align 2
  %34 = zext i16 %33 to i64
  %35 = getelementptr inbounds nuw i8, ptr %30, i64 %34
  %36 = getelementptr inbounds nuw i8, ptr %0, i64 64
  store ptr %35, ptr %36, align 8
  br label %_bt_returnitem.exit

_bt_returnitem.exit:                              ; preds = %31, %22, %20, %13
  %.0 = phi i1 [ false, %13 ], [ false, %20 ], [ true, %22 ], [ true, %31 ]
  ret i1 %.0
}